; Function Attrs: null_pointer_is_valid sspstrong uwtable
define internal fastcc void @add_ipv6_dst_address(ptr noundef %0, ptr noundef %1, ptr noundef initializes((184, 208), (232, 256)) %2, i32 noundef range(i32 4, 17) %3) unnamed_addr #0 {
  %5 = getelementptr inbounds nuw i8, ptr %2, i64 184
  %6 = tail call ptr @tvb_get_ptr(ptr noundef %1, i32 noundef range(i32 0, 17) %3, i32 noundef 16)
  store i32 3, ptr %5, align 8
  %7 = getelementptr inbounds nuw i8, ptr %2, i64 188
  store i32 16, ptr %7, align 4
  %8 = getelementptr inbounds nuw i8, ptr %2, i64 192
  store ptr %6, ptr %8, align 8
  %9 = getelementptr inbounds nuw i8, ptr %2, i64 200
  store ptr null, ptr %9, align 8
  %10 = getelementptr inbounds nuw i8, ptr %2, i64 232
  store i32 3, ptr %10, align 8
  %11 = getelementptr inbounds nuw i8, ptr %2, i64 236
  store i32 16, ptr %11, align 4
  %12 = getelementptr inbounds nuw i8, ptr %2, i64 240
  store ptr %6, ptr %12, align 8
  %13 = getelementptr inbounds nuw i8, ptr %2, i64 248
  store ptr null, ptr %13, align 8
  %.not = icmp eq ptr %0, null
  br i1 %.not, label %proto_item_set_hidden.exit36, label %14

14:                                               ; preds = %4
  %15 = getelementptr inbounds nuw i8, ptr %2, i64 408
  %16 = load ptr, ptr %15, align 8
  %17 = tail call ptr @address_to_display(ptr noundef %16, ptr noundef nonnull %5)
  %18 = load i32, ptr @hf_ipv6_dst, align 4
  %19 = tail call ptr @proto_tree_add_item(ptr noundef nonnull %0, i32 noundef %18, ptr noundef %1, i32 noundef %3, i32 noundef 16, i32 noundef 0)
  %20 = load i32, ptr @hf_ipv6_addr, align 4
  %21 = tail call ptr @proto_tree_add_item(ptr noundef nonnull %0, i32 noundef %20, ptr noundef %1, i32 noundef %3, i32 noundef 16, i32 noundef 0)
  %.not.i = icmp eq ptr %21, null
  br i1 %.not.i, label %proto_item_set_hidden.exit, label %22

22:                                               ; preds = %14
  %23 = getelementptr inbounds nuw i8, ptr %21, i64 40
  %24 = load ptr, ptr %23, align 8
  %.not5.i = icmp eq ptr %24, null
  br i1 %.not5.i, label %proto_item_set_hidden.exit, label %25

25:                                               ; preds = %22
  %26 = getelementptr inbounds nuw i8, ptr %24, i64 28
  %27 = load i32, ptr %26, align 4
  %28 = or i32 %27, 1
  store i32 %28, ptr %26, align 4
  br label %proto_item_set_hidden.exit

proto_item_set_hidden.exit:                       ; preds = %14, %22, %25
  %29 = load i32, ptr @hf_ipv6_dst_host, align 4
  %30 = tail call ptr @proto_tree_add_string(ptr noundef nonnull %0, i32 noundef %29, ptr noundef %1, i32 noundef %3, i32 noundef 16, ptr noundef %17)
  %.not.i26 = icmp eq ptr %30, null
  br i1 %.not.i26, label %proto_item_set_hidden.exit30, label %31

31:                                               ; preds = %proto_item_set_hidden.exit
  %32 = getelementptr inbounds nuw i8, ptr %30, i64 40
  %33 = load ptr, ptr %32, align 8
  %.not5.i27 = icmp eq ptr %33, null
  br i1 %.not5.i27, label %proto_item_set_hidden.exit30, label %34

34:                                               ; preds = %31
  %35 = getelementptr inbounds nuw i8, ptr %33, i64 28
  %36 = load i32, ptr %35, align 4
  %37 = or i32 %36, 2
  store i32 %37, ptr %35, align 4
  %.pre = load ptr, ptr %32, align 8
  %.not5.i29 = icmp eq ptr %.pre, null
  br i1 %.not5.i29, label %proto_item_set_hidden.exit30, label %38

38:                                               ; preds = %34
  %39 = getelementptr inbounds nuw i8, ptr %.pre, i64 28
  %40 = load i32, ptr %39, align 4
  %41 = or i32 %40, 1
  store i32 %41, ptr %39, align 4
  br label %proto_item_set_hidden.exit30

proto_item_set_hidden.exit30:                     ; preds = %31, %proto_item_set_hidden.exit, %34, %38
  %42 = load i32, ptr @hf_ipv6_host, align 4
  %43 = tail call ptr @proto_tree_add_string(ptr noundef nonnull %0, i32 noundef %42, ptr noundef %1, i32 noundef %3, i32 noundef 16, ptr noundef %17)
  %.not.i31 = icmp eq ptr %43, null
  br i1 %.not.i31, label %proto_item_set_hidden.exit36, label %44

44:                                               ; preds = %proto_item_set_hidden.exit30
  %45 = getelementptr inbounds nuw i8, ptr %43, i64 40
  %46 = load ptr, ptr %45, align 8
  %.not5.i32 = icmp eq ptr %46, null
  br i1 %.not5.i32, label %proto_item_set_hidden.exit36, label %47

47:                                               ; preds = %44
  %48 = getelementptr inbounds nuw i8, ptr %46, i64 28
  %49 = load i32, ptr %48, align 4
  %50 = or i32 %49, 2
  store i32 %50, ptr %48, align 4
  %.pre37 = load ptr, ptr %45, align 8
  %.not5.i35 = icmp eq ptr %.pre37, null
  br i1 %.not5.i35, label %proto_item_set_hidden.exit36, label %51

51:                                               ; preds = %47
  %52 = getelementptr inbounds nuw i8, ptr %.pre37, i64 28
  %53 = load i32, ptr %52, align 4
  %54 = or i32 %53, 1
  store i32 %54, ptr %52, align 4
  br label %proto_item_set_hidden.exit36

proto_item_set_hidden.exit36:                     ; preds = %44, %51, %47, %proto_item_set_hidden.exit30, %4
  ret void
}